; Function Attrs: mustprogress nofree norecurse nosync nounwind willreturn memory(argmem: readwrite) uwtable
define dso_local void @_ZN4node6worker7MessageC2EONS_14MallocedBufferIcEE(ptr nocapture noundef nonnull writeonly align 8 dereferenceable(136) %this, ptr nocapture noundef nonnull align 8 dereferenceable(16) %buffer) unnamed_addr #4 align 2 {
entry:
  store ptr getelementptr inbounds ({ [10 x ptr] }, ptr @_ZTVN4node6worker7MessageE, i64 0, i32 0, i64 2), ptr %this, align 8
  %main_message_buf_ = getelementptr inbounds i8, ptr %this, i64 8
  %0 = load ptr, ptr %buffer, align 8
  store ptr %0, ptr %main_message_buf_, align 8
  %size.i = getelementptr inbounds i8, ptr %this, i64 16
  %size3.i = getelementptr inbounds i8, ptr %buffer, i64 8
  %1 = load i64, ptr %size3.i, align 8
  store i64 %1, ptr %size.i, align 8
  store ptr null, ptr %buffer, align 8
  %array_buffers_ = getelementptr inbounds i8, ptr %this, i64 24
  %_M_engaged.i.i.i.i.i = getelementptr inbounds i8, ptr %this, i64 128
  store i8 0, ptr %_M_engaged.i.i.i.i.i, align 8
  tail call void @llvm.memset.p0.i64(ptr noundef nonnull align 8 dereferenceable(96) %array_buffers_, i8 0, i64 96, i1 false)
  ret void
}